; Function Attrs: mustprogress uwtable
define internal noundef zeroext i1 @"_ZNSt17_Function_handlerIFvRKSt3mapINSt7__cxx1112basic_stringIcSt11char_traitsIcESaIcEEEN3nix5flake10FlakeInputESt4lessIS6_ESaISt4pairIKS6_S9_EEENS7_3refINS8_4NodeEEERKSt6vectorIS6_SaIS6_EESt10shared_ptrIKSK_ESQ_RSD_bEZNS8_9lockFlakeERNS7_9EvalStateERKNS7_8FlakeRefERKNS8_9LockFlagsEE3$_0E10_M_managerERSt9_Any_dataRKS16_St18_Manager_operation"(ptr nocapture noundef nonnull align 8 dereferenceable(16) %0, ptr nocapture noundef nonnull readonly align 8 dereferenceable(16) %1, i32 noundef %2) #4 align 2 {
  switch i32 %2, label %"_ZNSt14_Function_base13_Base_managerIZN3nix5flake9lockFlakeERNS1_9EvalStateERKNS1_8FlakeRefERKNS2_9LockFlagsEE3$_0E10_M_managerERSt9_Any_dataRKSD_St18_Manager_operation.exit" [
    i32 0, label %4
    i32 1, label %5
    i32 3, label %8
    i32 2, label %6
  ]

4:                                                ; preds = %3
  store ptr @"_ZTIZN3nix5flake9lockFlakeERNS_9EvalStateERKNS_8FlakeRefERKNS0_9LockFlagsEE3$_0", ptr %0, align 8
  br label %"_ZNSt14_Function_base13_Base_managerIZN3nix5flake9lockFlakeERNS1_9EvalStateERKNS1_8FlakeRefERKNS2_9LockFlagsEE3$_0E10_M_managerERSt9_Any_dataRKSD_St18_Manager_operation.exit"

5:                                                ; preds = %3
  %.val = load ptr, ptr %1, align 8
  store ptr %.val, ptr %0, align 8
  br label %"_ZNSt14_Function_base13_Base_managerIZN3nix5flake9lockFlakeERNS1_9EvalStateERKNS1_8FlakeRefERKNS2_9LockFlagsEE3$_0E10_M_managerERSt9_Any_dataRKSD_St18_Manager_operation.exit"

6:                                                ; preds = %3
  %.val6 = load ptr, ptr %1, align 8
  %7 = tail call noalias noundef nonnull dereferenceable(88) ptr @_Znwm(i64 noundef 88) #29
  tail call void @llvm.memcpy.p0.p0.i64(ptr noundef nonnull align 16 dereferenceable(88) %7, ptr noundef nonnull align 8 dereferenceable(88) %.val6, i64 88, i1 false)
  store ptr %7, ptr %0, align 8
  br label %"_ZNSt14_Function_base13_Base_managerIZN3nix5flake9lockFlakeERNS1_9EvalStateERKNS1_8FlakeRefERKNS2_9LockFlagsEE3$_0E10_M_managerERSt9_Any_dataRKSD_St18_Manager_operation.exit"

8:                                                ; preds = %3
  %.val7.i = load ptr, ptr %0, align 8
  %9 = icmp eq ptr %.val7.i, null
  br i1 %9, label %"_ZNSt14_Function_base13_Base_managerIZN3nix5flake9lockFlakeERNS1_9EvalStateERKNS1_8FlakeRefERKNS2_9LockFlagsEE3$_0E10_M_managerERSt9_Any_dataRKSD_St18_Manager_operation.exit", label %10

10:                                               ; preds = %8
  tail call void @_ZdlPv(ptr noundef nonnull %.val7.i) #30
  br label %"_ZNSt14_Function_base13_Base_managerIZN3nix5flake9lockFlakeERNS1_9EvalStateERKNS1_8FlakeRefERKNS2_9LockFlagsEE3$_0E10_M_managerERSt9_Any_dataRKSD_St18_Manager_operation.exit"

"_ZNSt14_Function_base13_Base_managerIZN3nix5flake9lockFlakeERNS1_9EvalStateERKNS1_8FlakeRefERKNS2_9LockFlagsEE3$_0E10_M_managerERSt9_Any_dataRKSD_St18_Manager_operation.exit": ; preds = %3, %10, %8, %6, %5, %4
  ret i1 false
}